; Function Attrs: mustprogress uwtable
define noundef zeroext i1 @_ZN18OpenImageIO_v2_6_010ImageInput14read_scanlinesEiiiiiNS_8TypeDescEPvll(ptr noundef nonnull align 8 dereferenceable(184) %this, i32 noundef %ybegin, i32 noundef %yend, i32 noundef %z, i32 noundef %chbegin, i32 noundef %chend, ptr nocapture noundef readonly %format, ptr noundef %data, i64 noundef %xstride, i64 noundef %ystride) local_unnamed_addr #5 align 2 personality ptr @__gxx_personality_v0 {
entry:
  %agg.tmp = alloca %"struct.OpenImageIO_v2_6_0::TypeDesc", align 4
  %add.ptr.i.i.i.i.i.i.i.i = getelementptr inbounds i8, ptr %this, i64 176
  %0 = load ptr, ptr %add.ptr.i.i.i.i.i.i.i.i, align 8
  %call1.i.i.i.i.i = tail call noundef i32 @pthread_mutex_lock(ptr noundef nonnull %0) #26
  %tobool.not.i.i.i = icmp eq i32 %call1.i.i.i.i.i, 0
  br i1 %tobool.not.i.i.i, label %_ZNSt10lock_guardIRKN18OpenImageIO_v2_6_010ImageInputEEC2ES3_.exit, label %if.then.i.i.i

if.then.i.i.i:                                    ; preds = %entry
  tail call void @_ZSt20__throw_system_errori(i32 noundef %call1.i.i.i.i.i) #31
  unreachable

_ZNSt10lock_guardIRKN18OpenImageIO_v2_6_010ImageInputEEC2ES3_.exit: ; preds = %entry
  %vtable = load ptr, ptr %this, align 8
  %vfn = getelementptr inbounds i8, ptr %vtable, i64 104
  %1 = load ptr, ptr %vfn, align 8
  %call = invoke noundef i32 %1(ptr noundef nonnull align 8 dereferenceable(184) %this)
          to label %invoke.cont unwind label %lpad

invoke.cont:                                      ; preds = %_ZNSt10lock_guardIRKN18OpenImageIO_v2_6_010ImageInputEEC2ES3_.exit
  %vtable2 = load ptr, ptr %this, align 8
  %vfn3 = getelementptr inbounds i8, ptr %vtable2, i64 112
  %2 = load ptr, ptr %vfn3, align 8
  %call5 = invoke noundef i32 %2(ptr noundef nonnull align 8 dereferenceable(184) %this)
          to label %invoke.cont4 unwind label %lpad

invoke.cont4:                                     ; preds = %invoke.cont
  %3 = load i8, ptr %format, align 4
  store i8 %3, ptr %agg.tmp, align 4
  %aggregate.i = getelementptr inbounds i8, ptr %agg.tmp, i64 1
  %aggregate3.i = getelementptr inbounds i8, ptr %format, i64 1
  %4 = load i8, ptr %aggregate3.i, align 1
  store i8 %4, ptr %aggregate.i, align 1
  %vecsemantics.i = getelementptr inbounds i8, ptr %agg.tmp, i64 2
  %vecsemantics4.i = getelementptr inbounds i8, ptr %format, i64 2
  %5 = load i8, ptr %vecsemantics4.i, align 2
  store i8 %5, ptr %vecsemantics.i, align 2
  %reserved.i = getelementptr inbounds i8, ptr %agg.tmp, i64 3
  store i8 0, ptr %reserved.i, align 1
  %arraylen.i = getelementptr inbounds i8, ptr %agg.tmp, i64 4
  %arraylen5.i = getelementptr inbounds i8, ptr %format, i64 4
  %6 = load i32, ptr %arraylen5.i, align 4
  store i32 %6, ptr %arraylen.i, align 4
  %vtable6 = load ptr, ptr %this, align 8
  %vfn7 = getelementptr inbounds i8, ptr %vtable6, i64 136
  %7 = load ptr, ptr %vfn7, align 8
  %call9 = invoke noundef zeroext i1 %7(ptr noundef nonnull align 8 dereferenceable(184) %this, i32 noundef %call, i32 noundef %call5, i32 noundef %ybegin, i32 noundef %yend, i32 noundef %z, i32 noundef %chbegin, i32 noundef %chend, ptr noundef nonnull %agg.tmp, ptr noundef %data, i64 noundef %xstride, i64 noundef %ystride)
          to label %invoke.cont8 unwind label %lpad

invoke.cont8:                                     ; preds = %invoke.cont4
  %8 = load ptr, ptr %add.ptr.i.i.i.i.i.i.i.i, align 8
  %call1.i.i.i.i.i2 = call noundef i32 @pthread_mutex_unlock(ptr noundef nonnull %8) #26
  ret i1 %call9

lpad:                                             ; preds = %invoke.cont4, %invoke.cont, %_ZNSt10lock_guardIRKN18OpenImageIO_v2_6_010ImageInputEEC2ES3_.exit
  %9 = landingpad { ptr, i32 }
          cleanup
  %10 = load ptr, ptr %add.ptr.i.i.i.i.i.i.i.i, align 8
  %call1.i.i.i.i.i4 = call noundef i32 @pthread_mutex_unlock(ptr noundef nonnull %10) #26
  resume { ptr, i32 } %9
}